#include <math.h>
#include <stdio.h>
#include <stdlib.h>
#include <string.h>

int main()
{
    char s[100],w[100];
	int j,sl,wl;
      scanf("%s %s",&s,&w);
	  sl=strlen(s);wl=strlen(w);
	   for(j=0;j<wl;j++)
			   if (w[j]==s[0])
			   { printf("%d",j);break;}
			   return 0;

}
