; ModuleID = '45/1565.c'
source_filename = "45/1565.c"
target datalayout = "e-m:e-p270:32:32-p271:32:32-p272:64:64-i64:64-f80:128-n8:16:32:64-S128"
target triple = "x86_64-pc-linux-gnu"

@.str = private unnamed_addr constant [6 x i8] c"%s %s\00", align 1
@.str.1 = private unnamed_addr constant [3 x i8] c"%d\00", align 1

; Function Attrs: noinline nounwind uwtable
define dso_local i32 @main() #0 {
  %1 = alloca i32, align 4
  %2 = alloca [100 x i8], align 16
  %3 = alloca [100 x i8], align 16
  %4 = alloca i32, align 4
  %5 = alloca i32, align 4
  %6 = alloca i32, align 4
  store i32 0, i32* %1, align 4
  %7 = call i32 (i8*, ...) @__isoc99_scanf(i8* getelementptr inbounds ([6 x i8], [6 x i8]* @.str, i64 0, i64 0), [100 x i8]* %2, [100 x i8]* %3)
  %8 = getelementptr inbounds [100 x i8], [100 x i8]* %2, i64 0, i64 0
  %9 = call i64 @strlen(i8* %8) #3
  %10 = trunc i64 %9 to i32
  store i32 %10, i32* %5, align 4
  %11 = getelementptr inbounds [100 x i8], [100 x i8]* %3, i64 0, i64 0
  %12 = call i64 @strlen(i8* %11) #3
  %13 = trunc i64 %12 to i32
  store i32 %13, i32* %6, align 4
  store i32 0, i32* %4, align 4
  br label %14

14:                                               ; preds = %32, %0
  %15 = load i32, i32* %4, align 4
  %16 = load i32, i32* %6, align 4
  %17 = icmp slt i32 %15, %16
  br i1 %17, label %18, label %35

18:                                               ; preds = %14
  %19 = load i32, i32* %4, align 4
  %20 = sext i32 %19 to i64
  %21 = getelementptr inbounds [100 x i8], [100 x i8]* %3, i64 0, i64 %20
  %22 = load i8, i8* %21, align 1
  %23 = sext i8 %22 to i32
  %24 = getelementptr inbounds [100 x i8], [100 x i8]* %2, i64 0, i64 0
  %25 = load i8, i8* %24, align 16
  %26 = sext i8 %25 to i32
  %27 = icmp eq i32 %23, %26
  br i1 %27, label %28, label %31

28:                                               ; preds = %18
  %29 = load i32, i32* %4, align 4
  %30 = call i32 (i8*, ...) @printf(i8* getelementptr inbounds ([3 x i8], [3 x i8]* @.str.1, i64 0, i64 0), i32 %29)
  br label %35

31:                                               ; preds = %18
  br label %32

32:                                               ; preds = %31
  %33 = load i32, i32* %4, align 4
  %34 = add nsw i32 %33, 1
  store i32 %34, i32* %4, align 4
  br label %14

35:                                               ; preds = %28, %14
  ret i32 0
}

declare dso_local i32 @__isoc99_scanf(i8*, ...) #1

; Function Attrs: nounwind readonly
declare dso_local i64 @strlen(i8*) #2

declare dso_local i32 @printf(i8*, ...) #1


!llvm.module.flags = !{!0}
!llvm.ident = !{!1}

!0 = !{i32 1, !"wchar_size", i32 4}
!1 = !{!"clang version 10.0.0-4ubuntu1 "}
